target datalayout = "e-m:e-p270:32:32-p271:32:32-p272:64:64-i64:64-i128:128-f80:128-n8:16:32:64-S128"
target triple = "x86_64-pc-linux-gnu"

@.str = private unnamed_addr constant [118 x i8] c"generated/home/dtcxzyw/WorkSpace/Projects/compilers/llvm-opt-benchmark/bench/libquic/libquic/boringssl/ssl/ssl_asn1.c\00", align 1

; Function Attrs: nounwind uwtable
define internal i32 @SSL_SESSION_parse_u32(ptr noundef %0, ptr noundef %1, i32 noundef %2, i32 noundef %3) #0 {
  %5 = alloca i32, align 4
  %6 = alloca ptr, align 8
  %7 = alloca ptr, align 8
  %8 = alloca i32, align 4
  %9 = alloca i32, align 4
  %10 = alloca i64, align 8
  %11 = alloca i32, align 4
  store ptr %0, ptr %6, align 8, !tbaa !52
  store ptr %1, ptr %7, align 8, !tbaa !62
  store i32 %2, ptr %8, align 4, !tbaa !15
  store i32 %3, ptr %9, align 4, !tbaa !15
  call void @llvm.lifetime.start.p0(i64 8, ptr %10) #6
  %12 = load ptr, ptr %6, align 8, !tbaa !52
  %13 = load i32, ptr %8, align 4, !tbaa !15
  %14 = load i32, ptr %9, align 4, !tbaa !15
  %15 = zext i32 %14 to i64
  %16 = call i32 @CBS_get_optional_asn1_uint64(ptr noundef %12, ptr noundef %10, i32 noundef %13, i64 noundef %15)
  %17 = icmp ne i32 %16, 0
  br i1 %17, label %18, label %21

18:                                               ; preds = %4
  %19 = load i64, ptr %10, align 8, !tbaa !48
  %20 = icmp ugt i64 %19, 4294967295
  br i1 %20, label %21, label %22

21:                                               ; preds = %18, %4
  call void @ERR_put_error(i32 noundef 16, i32 noundef 0, i32 noundef 160, ptr noundef @.str, i32 noundef 487)
  store i32 0, ptr %5, align 4
  store i32 1, ptr %11, align 4
  br label %26

22:                                               ; preds = %18
  %23 = load i64, ptr %10, align 8, !tbaa !48
  %24 = trunc i64 %23 to i32
  %25 = load ptr, ptr %7, align 8, !tbaa !62
  store i32 %24, ptr %25, align 4, !tbaa !15
  store i32 1, ptr %5, align 4
  store i32 1, ptr %11, align 4
  br label %26

26:                                               ; preds = %22, %21
  call void @llvm.lifetime.end.p0(i64 8, ptr %10) #6
  %27 = load i32, ptr %5, align 4
  ret i32 %27
}