; Function Attrs: nounwind uwtable
define internal fastcc range(i32 0, 2) i32 @SSL_SESSION_parse_u32(ptr noundef nonnull %0, ptr noundef nonnull writeonly captures(none) %1, i32 noundef range(i32 169, 179) %2) unnamed_addr #0 {
  %4 = alloca i64, align 8
  call void @llvm.lifetime.start.p0(i64 8, ptr nonnull %4) #7
  %5 = call i32 @CBS_get_optional_asn1_uint64(ptr noundef nonnull %0, ptr noundef nonnull %4, i32 noundef %2, i64 noundef 0) #7
  %6 = icmp eq i32 %5, 0
  %7 = load i64, ptr %4, align 8
  %8 = icmp ugt i64 %7, 4294967295
  %or.cond = select i1 %6, i1 true, i1 %8
  br i1 %or.cond, label %9, label %10

9:                                                ; preds = %3
  call void @ERR_put_error(i32 noundef 16, i32 noundef 0, i32 noundef 160, ptr noundef nonnull @.str, i32 noundef 487) #7
  br label %12

10:                                               ; preds = %3
  %11 = trunc nuw i64 %7 to i32
  store i32 %11, ptr %1, align 4, !tbaa !48
  br label %12

12:                                               ; preds = %10, %9
  %.0 = phi i32 [ 0, %9 ], [ 1, %10 ]
  call void @llvm.lifetime.end.p0(i64 8, ptr nonnull %4) #7
  ret i32 %.0
}